; Function Attrs: nofree norecurse nosync nounwind memory(read, inaccessiblemem: none) uwtable
define internal fastcc range(i64 0, 2) i64 @is_multiindex(ptr noundef readonly captures(none) %0) unnamed_addr #10 {
  %2 = getelementptr i8, ptr %0, i64 8
  %.val12 = load ptr, ptr %2, align 8, !tbaa !134
  %3 = getelementptr i8, ptr %.val12, i64 168
  %.val13 = load i64, ptr %3, align 8, !tbaa !166
  %4 = and i64 %.val13, 67108864
  %.not = icmp eq i64 %4, 0
  br i1 %.not, label %_PyIndex_Check.exit.thread, label %5

5:                                                ; preds = %1
  %6 = getelementptr i8, ptr %0, i64 16
  %.val = load i64, ptr %6, align 8, !tbaa !162
  %7 = getelementptr inbounds nuw i8, ptr %0, i64 24
  %8 = icmp sgt i64 %.val, 0
  br i1 %8, label %.lr.ph, label %_PyIndex_Check.exit.thread

9:                                                ; preds = %_PyIndex_Check.exit
  %10 = add nuw nsw i64 %.01017, 1
  %exitcond.not = icmp eq i64 %10, %.val
  br i1 %exitcond.not, label %_PyIndex_Check.exit.thread, label %.lr.ph, !llvm.loop !171

.lr.ph:                                           ; preds = %5, %9
  %.01017 = phi i64 [ %10, %9 ], [ 0, %5 ]
  %11 = getelementptr [1 x ptr], ptr %7, i64 0, i64 %.01017
  %12 = load ptr, ptr %11, align 8, !tbaa !104
  %13 = getelementptr i8, ptr %12, i64 8
  %.val14 = load ptr, ptr %13, align 8, !tbaa !134
  %14 = getelementptr i8, ptr %.val14, i64 96
  %.val14.val = load ptr, ptr %14, align 8, !tbaa !167
  %.not.i = icmp eq ptr %.val14.val, null
  br i1 %.not.i, label %_PyIndex_Check.exit.thread, label %_PyIndex_Check.exit

_PyIndex_Check.exit:                              ; preds = %.lr.ph
  %15 = getelementptr inbounds nuw i8, ptr %.val14.val, i64 264
  %16 = load ptr, ptr %15, align 8, !tbaa !168
  %.not16 = icmp eq ptr %16, null
  br i1 %.not16, label %_PyIndex_Check.exit.thread, label %9

_PyIndex_Check.exit.thread:                       ; preds = %_PyIndex_Check.exit, %9, %.lr.ph, %5, %1
  %.0 = phi i64 [ 0, %1 ], [ 1, %5 ], [ 0, %_PyIndex_Check.exit ], [ 1, %9 ], [ 0, %.lr.ph ]
  ret i64 %.0
}